target datalayout = "e-m:e-p270:32:32-p271:32:32-p272:64:64-i64:64-i128:128-f80:128-n8:16:32:64-S128"
target triple = "x86_64-pc-linux-gnu"

%struct.slurm_conf_t = type { i64, ptr, i16, ptr, ptr, ptr, ptr, ptr, i16, ptr, ptr, ptr, ptr, ptr, ptr, ptr, i16, ptr, ptr, ptr, ptr, i16, ptr, ptr, ptr, i64, ptr, ptr, ptr, ptr, i16, ptr, ptr, i16, i32, ptr, i32, ptr, i32, i32, ptr, ptr, i64, i64, ptr, i16, i16, ptr, i32, i32, ptr, i32, ptr, i32, i16, i16, i16, ptr, i16, i16, ptr, ptr, i32, i16, i16, ptr, i32, i16, ptr, ptr, ptr, ptr, i16, ptr, ptr, ptr, ptr, i32, ptr, ptr, ptr, ptr, i16, i16, ptr, i32, i32, i32, i16, i16, ptr, ptr, i16, ptr, ptr, i32, i32, i32, i32, i32, i64, i32, i32, i16, ptr, ptr, i32, ptr, ptr, ptr, i16, i32, ptr, ptr, i16, ptr, ptr, i32, i16, ptr, ptr, ptr, ptr, i32, i32, i16, i16, i32, ptr, i16, ptr, i32, i32, i32, i32, i32, i32, ptr, i16, ptr, ptr, i32, i16, ptr, i32, i16, i16, ptr, ptr, ptr, i16, ptr, ptr, ptr, ptr, i16, i16, ptr, i16, ptr, i16, ptr, i16, ptr, i16, ptr, ptr, ptr, ptr, i16, ptr, ptr, ptr, i32, ptr, i32, ptr, ptr, i16, ptr, ptr, i32, i16, ptr, ptr, i16, i16, ptr, i16, ptr, ptr, ptr, i32, ptr, i16, i16, ptr, ptr, ptr, ptr, ptr, ptr, ptr, ptr, i16, i32, i16, ptr, ptr, ptr, ptr, i32, ptr, ptr, ptr, i16, ptr, ptr, ptr, i16, ptr, i16, ptr, i16, i16, ptr }
%struct.data_s = type { i32, i32, %union.anon }
%union.anon = type { ptr }
%struct.data_list_s = type { i32, i64, ptr, ptr }
%struct.data_list_node_s = type { i32, ptr, ptr, ptr }

@.str = private unnamed_addr constant [7 x i8] c"data.c\00", align 1
@__func__.data_new = private unnamed_addr constant [9 x i8] c"data_new\00", align 1
@slurm_conf = external global %struct.slurm_conf_t, align 8
@.str.1 = private unnamed_addr constant [18 x i8] c"DATA: %s: new %pD\00", align 1
@.str.12 = private unnamed_addr constant [33 x i8] c"DATA: %s: prepended %pD[%zu]=%pD\00", align 1
@__func__.data_list_prepend = private unnamed_addr constant [18 x i8] c"data_list_prepend\00", align 1
@__func__._new_data_list_node = private unnamed_addr constant [20 x i8] c"_new_data_list_node\00", align 1
@.str.76 = private unnamed_addr constant [61 x i8] c"DATA: %s: new dictionary entry data-list-node(0x%lx)[%s]=%pD\00", align 1
@.str.77 = private unnamed_addr constant [51 x i8] c"DATA: %s: new list entry data-list-node(0x%lx)=%pD\00", align 1
@.str.78 = private unnamed_addr constant [57 x i8] c"DATA: %s: prepend %pD[%s]->data-list-node(0x%lx)[%s]=%pD\00", align 1
@__func__._data_list_prepend = private unnamed_addr constant [19 x i8] c"_data_list_prepend\00", align 1

; Function Attrs: nounwind uwtable
define internal void @_check_data_list_node_magic(ptr noundef %0) #0 {
  %2 = alloca ptr, align 8
  store ptr %0, ptr %2, align 8
  ret void
}

; Function Attrs: nounwind uwtable
define internal ptr @_new_data_list_node(ptr noundef %0, ptr noundef %1) #0 {
  %3 = alloca ptr, align 8
  %4 = alloca ptr, align 8
  %5 = alloca ptr, align 8
  store ptr %0, ptr %3, align 8
  store ptr %1, ptr %4, align 8
  call void @llvm.lifetime.start.p0(i64 8, ptr %5) #10
  %6 = call ptr @slurm_xcalloc(i64 noundef 1, i64 noundef 32, i1 noundef zeroext true, i1 noundef zeroext false, ptr noundef @.str, i32 noundef 317, ptr noundef @__func__._new_data_list_node)
  store ptr %6, ptr %5, align 8
  %7 = load ptr, ptr %5, align 8
  %8 = getelementptr inbounds nuw %struct.data_list_node_s, ptr %7, i32 0, i32 0
  store i32 421656735, ptr %8, align 8
  %9 = load ptr, ptr %3, align 8
  call void @_check_magic(ptr noundef %9)
  %10 = load ptr, ptr %3, align 8
  %11 = load ptr, ptr %5, align 8
  %12 = getelementptr inbounds nuw %struct.data_list_node_s, ptr %11, i32 0, i32 2
  store ptr %10, ptr %12, align 8
  %13 = load ptr, ptr %4, align 8
  %14 = icmp ne ptr %13, null
  br i1 %14, label %15, label %43

15:                                               ; preds = %2
  %16 = load ptr, ptr %4, align 8
  %17 = call ptr @xstrdup(ptr noundef %16)
  %18 = load ptr, ptr %5, align 8
  %19 = getelementptr inbounds nuw %struct.data_list_node_s, ptr %18, i32 0, i32 3
  store ptr %17, ptr %19, align 8
  br label %20

20:                                               ; preds = %15
  %21 = load i64, ptr getelementptr inbounds nuw (%struct.slurm_conf_t, ptr @slurm_conf, i32 0, i32 42), align 8
  %22 = and i64 %21, 256
  %23 = icmp ne i64 %22, 0
  br i1 %23, label %24, label %40

24:                                               ; preds = %20
  br label %25

25:                                               ; preds = %24
  %26 = call i32 @get_log_level()
  %27 = icmp sge i32 %26, 4
  br i1 %27, label %28, label %37

28:                                               ; preds = %25
  %29 = load ptr, ptr %5, align 8
  %30 = ptrtoint ptr %29 to i64
  %31 = load ptr, ptr %5, align 8
  %32 = getelementptr inbounds nuw %struct.data_list_node_s, ptr %31, i32 0, i32 3
  %33 = load ptr, ptr %32, align 8
  %34 = load ptr, ptr %5, align 8
  %35 = getelementptr inbounds nuw %struct.data_list_node_s, ptr %34, i32 0, i32 2
  %36 = load ptr, ptr %35, align 8
  call void (i32, ptr, ...) @log_var(i32 noundef 4, ptr noundef @.str.76, ptr noundef @__func__._new_data_list_node, i64 noundef %30, ptr noundef %33, ptr noundef %36)
  br label %37

37:                                               ; preds = %28, %25
  br label %38

38:                                               ; preds = %37
  br label %39

39:                                               ; preds = %38
  br label %40

40:                                               ; preds = %39, %20
  br label %41

41:                                               ; preds = %40
  br label %42

42:                                               ; preds = %41
  br label %64

43:                                               ; preds = %2
  br label %44

44:                                               ; preds = %43
  %45 = load i64, ptr getelementptr inbounds nuw (%struct.slurm_conf_t, ptr @slurm_conf, i32 0, i32 42), align 8
  %46 = and i64 %45, 256
  %47 = icmp ne i64 %46, 0
  br i1 %47, label %48, label %61

48:                                               ; preds = %44
  br label %49

49:                                               ; preds = %48
  %50 = call i32 @get_log_level()
  %51 = icmp sge i32 %50, 4
  br i1 %51, label %52, label %58

52:                                               ; preds = %49
  %53 = load ptr, ptr %5, align 8
  %54 = ptrtoint ptr %53 to i64
  %55 = load ptr, ptr %5, align 8
  %56 = getelementptr inbounds nuw %struct.data_list_node_s, ptr %55, i32 0, i32 2
  %57 = load ptr, ptr %56, align 8
  call void (i32, ptr, ...) @log_var(i32 noundef 4, ptr noundef @.str.77, ptr noundef @__func__._new_data_list_node, i64 noundef %54, ptr noundef %57)
  br label %58

58:                                               ; preds = %52, %49
  br label %59

59:                                               ; preds = %58
  br label %60

60:                                               ; preds = %59
  br label %61

61:                                               ; preds = %60, %44
  br label %62

62:                                               ; preds = %61
  br label %63

63:                                               ; preds = %62
  br label %64

64:                                               ; preds = %63, %42
  %65 = load ptr, ptr %5, align 8
  call void @llvm.lifetime.end.p0(i64 8, ptr %5) #10
  ret ptr %65
}

; Function Attrs: nounwind uwtable
define internal void @_check_data_list_magic(ptr noundef %0) #0 {
  %2 = alloca ptr, align 8
  store ptr %0, ptr %2, align 8
  ret void
}

; Function Attrs: nounwind uwtable
define internal void @_data_list_prepend(ptr noundef %0, ptr noundef %1, ptr noundef %2) #0 {
  %4 = alloca ptr, align 8
  %5 = alloca ptr, align 8
  %6 = alloca ptr, align 8
  %7 = alloca ptr, align 8
  store ptr %0, ptr %4, align 8
  store ptr %1, ptr %5, align 8
  store ptr %2, ptr %6, align 8
  call void @llvm.lifetime.start.p0(i64 8, ptr %7) #10
  %8 = load ptr, ptr %5, align 8
  %9 = load ptr, ptr %6, align 8
  %10 = call ptr @_new_data_list_node(ptr noundef %8, ptr noundef %9)
  store ptr %10, ptr %7, align 8
  %11 = load ptr, ptr %4, align 8
  call void @_check_data_list_magic(ptr noundef %11)
  %12 = load ptr, ptr %5, align 8
  call void @_check_magic(ptr noundef %12)
  %13 = load ptr, ptr %4, align 8
  %14 = getelementptr inbounds nuw %struct.data_list_s, ptr %13, i32 0, i32 2
  %15 = load ptr, ptr %14, align 8
  %16 = icmp ne ptr %15, null
  br i1 %16, label %17, label %29

17:                                               ; preds = %3
  %18 = load ptr, ptr %4, align 8
  %19 = getelementptr inbounds nuw %struct.data_list_s, ptr %18, i32 0, i32 2
  %20 = load ptr, ptr %19, align 8
  call void @_check_data_list_node_magic(ptr noundef %20)
  %21 = load ptr, ptr %4, align 8
  %22 = getelementptr inbounds nuw %struct.data_list_s, ptr %21, i32 0, i32 2
  %23 = load ptr, ptr %22, align 8
  %24 = load ptr, ptr %7, align 8
  %25 = getelementptr inbounds nuw %struct.data_list_node_s, ptr %24, i32 0, i32 1
  store ptr %23, ptr %25, align 8
  %26 = load ptr, ptr %7, align 8
  %27 = load ptr, ptr %4, align 8
  %28 = getelementptr inbounds nuw %struct.data_list_s, ptr %27, i32 0, i32 2
  store ptr %26, ptr %28, align 8
  br label %36

29:                                               ; preds = %3
  %30 = load ptr, ptr %7, align 8
  %31 = load ptr, ptr %4, align 8
  %32 = getelementptr inbounds nuw %struct.data_list_s, ptr %31, i32 0, i32 2
  store ptr %30, ptr %32, align 8
  %33 = load ptr, ptr %7, align 8
  %34 = load ptr, ptr %4, align 8
  %35 = getelementptr inbounds nuw %struct.data_list_s, ptr %34, i32 0, i32 3
  store ptr %33, ptr %35, align 8
  br label %36

36:                                               ; preds = %29, %17
  %37 = load ptr, ptr %4, align 8
  %38 = getelementptr inbounds nuw %struct.data_list_s, ptr %37, i32 0, i32 1
  %39 = load i64, ptr %38, align 8
  %40 = add i64 %39, 1
  store i64 %40, ptr %38, align 8
  br label %41

41:                                               ; preds = %36
  %42 = load i64, ptr getelementptr inbounds nuw (%struct.slurm_conf_t, ptr @slurm_conf, i32 0, i32 42), align 8
  %43 = and i64 %42, 256
  %44 = icmp ne i64 %43, 0
  br i1 %44, label %45, label %63

45:                                               ; preds = %41
  br label %46

46:                                               ; preds = %45
  %47 = call i32 @get_log_level()
  %48 = icmp sge i32 %47, 4
  br i1 %48, label %49, label %60

49:                                               ; preds = %46
  %50 = load ptr, ptr %5, align 8
  %51 = load ptr, ptr %6, align 8
  %52 = load ptr, ptr %7, align 8
  %53 = ptrtoint ptr %52 to i64
  %54 = load ptr, ptr %7, align 8
  %55 = getelementptr inbounds nuw %struct.data_list_node_s, ptr %54, i32 0, i32 3
  %56 = load ptr, ptr %55, align 8
  %57 = load ptr, ptr %7, align 8
  %58 = getelementptr inbounds nuw %struct.data_list_node_s, ptr %57, i32 0, i32 2
  %59 = load ptr, ptr %58, align 8
  call void (i32, ptr, ...) @log_var(i32 noundef 4, ptr noundef @.str.78, ptr noundef @__func__._data_list_prepend, ptr noundef %50, ptr noundef %51, i64 noundef %53, ptr noundef %56, ptr noundef %59)
  br label %60

60:                                               ; preds = %49, %46
  br label %61

61:                                               ; preds = %60
  br label %62

62:                                               ; preds = %61
  br label %63

63:                                               ; preds = %62, %41
  br label %64

64:                                               ; preds = %63
  br label %65

65:                                               ; preds = %64
  call void @llvm.lifetime.end.p0(i64 8, ptr %7) #10
  ret void
}

; Function Attrs: nounwind uwtable
define dso_local ptr @data_new() #0 {
  %1 = alloca ptr, align 8
  call void @llvm.lifetime.start.p0(i64 8, ptr %1) #10
  %2 = call ptr @slurm_xcalloc(i64 noundef 1, i64 noundef 16, i1 noundef zeroext true, i1 noundef zeroext false, ptr noundef @.str, i32 noundef 389, ptr noundef @__func__.data_new)
  store ptr %2, ptr %1, align 8
  %3 = load ptr, ptr %1, align 8
  %4 = getelementptr inbounds nuw %struct.data_s, ptr %3, i32 0, i32 0
  store i32 429004959, ptr %4, align 8
  %5 = load ptr, ptr %1, align 8
  %6 = getelementptr inbounds nuw %struct.data_s, ptr %5, i32 0, i32 1
  store i32 65281, ptr %6, align 4
  br label %7

7:                                                ; preds = %0
  %8 = load i64, ptr getelementptr inbounds nuw (%struct.slurm_conf_t, ptr @slurm_conf, i32 0, i32 42), align 8
  %9 = and i64 %8, 256
  %10 = icmp ne i64 %9, 0
  br i1 %10, label %11, label %20

11:                                               ; preds = %7
  br label %12

12:                                               ; preds = %11
  %13 = call i32 @get_log_level()
  %14 = icmp sge i32 %13, 4
  br i1 %14, label %15, label %17

15:                                               ; preds = %12
  %16 = load ptr, ptr %1, align 8
  call void (i32, ptr, ...) @log_var(i32 noundef 4, ptr noundef @.str.1, ptr noundef @__func__.data_new, ptr noundef %16)
  br label %17

17:                                               ; preds = %15, %12
  br label %18

18:                                               ; preds = %17
  br label %19

19:                                               ; preds = %18
  br label %20

20:                                               ; preds = %19, %7
  br label %21

21:                                               ; preds = %20
  br label %22

22:                                               ; preds = %21
  %23 = load ptr, ptr %1, align 8
  call void @llvm.lifetime.end.p0(i64 8, ptr %1) #10
  ret ptr %23
}

; Function Attrs: nounwind uwtable
define internal void @_check_magic(ptr noundef %0) #0 {
  %2 = alloca ptr, align 8
  store ptr %0, ptr %2, align 8
  %3 = load ptr, ptr %2, align 8
  %4 = icmp ne ptr %3, null
  br i1 %4, label %6, label %5

5:                                                ; preds = %1
  br label %29

6:                                                ; preds = %1
  %7 = load i64, ptr getelementptr inbounds nuw (%struct.slurm_conf_t, ptr @slurm_conf, i32 0, i32 42), align 8
  %8 = and i64 %7, 256
  %9 = icmp ne i64 %8, 0
  br i1 %9, label %10, label %29

10:                                               ; preds = %6
  %11 = load ptr, ptr %2, align 8
  %12 = getelementptr inbounds nuw %struct.data_s, ptr %11, i32 0, i32 1
  %13 = load i32, ptr %12, align 4
  %14 = icmp eq i32 %13, 65282
  br i1 %14, label %15, label %19

15:                                               ; preds = %10
  %16 = load ptr, ptr %2, align 8
  %17 = getelementptr inbounds nuw %struct.data_s, ptr %16, i32 0, i32 2
  %18 = load ptr, ptr %17, align 8
  call void @_check_data_list_magic(ptr noundef %18)
  br label %19

19:                                               ; preds = %15, %10
  %20 = load ptr, ptr %2, align 8
  %21 = getelementptr inbounds nuw %struct.data_s, ptr %20, i32 0, i32 1
  %22 = load i32, ptr %21, align 4
  %23 = icmp eq i32 %22, 65283
  br i1 %23, label %24, label %28

24:                                               ; preds = %19
  %25 = load ptr, ptr %2, align 8
  %26 = getelementptr inbounds nuw %struct.data_s, ptr %25, i32 0, i32 2
  %27 = load ptr, ptr %26, align 8
  call void @_check_data_list_magic(ptr noundef %27)
  br label %28

28:                                               ; preds = %24, %19
  br label %29

29:                                               ; preds = %5, %28, %6
  ret void
}

; Function Attrs: nounwind uwtable
define dso_local ptr @data_list_prepend(ptr noundef %0) #0 {
  %2 = alloca ptr, align 8
  %3 = alloca ptr, align 8
  %4 = alloca ptr, align 8
  %5 = alloca i32, align 4
  store ptr %0, ptr %3, align 8
  call void @llvm.lifetime.start.p0(i64 8, ptr %4) #10
  store ptr null, ptr %4, align 8
  %6 = load ptr, ptr %3, align 8
  call void @_check_magic(ptr noundef %6)
  %7 = load ptr, ptr %3, align 8
  %8 = icmp ne ptr %7, null
  br i1 %8, label %9, label %14

9:                                                ; preds = %1
  %10 = load ptr, ptr %3, align 8
  %11 = getelementptr inbounds nuw %struct.data_s, ptr %10, i32 0, i32 1
  %12 = load i32, ptr %11, align 4
  %13 = icmp ne i32 %12, 65282
  br i1 %13, label %14, label %15

14:                                               ; preds = %9, %1
  store ptr null, ptr %2, align 8
  store i32 1, ptr %5, align 4
  br label %44

15:                                               ; preds = %9
  %16 = call ptr @data_new()
  store ptr %16, ptr %4, align 8
  %17 = load ptr, ptr %3, align 8
  %18 = getelementptr inbounds nuw %struct.data_s, ptr %17, i32 0, i32 2
  %19 = load ptr, ptr %18, align 8
  %20 = load ptr, ptr %4, align 8
  call void @_data_list_prepend(ptr noundef %19, ptr noundef %20, ptr noundef null)
  br label %21

21:                                               ; preds = %15
  %22 = load i64, ptr getelementptr inbounds nuw (%struct.slurm_conf_t, ptr @slurm_conf, i32 0, i32 42), align 8
  %23 = and i64 %22, 256
  %24 = icmp ne i64 %23, 0
  br i1 %24, label %25, label %40

25:                                               ; preds = %21
  br label %26

26:                                               ; preds = %25
  %27 = call i32 @get_log_level()
  %28 = icmp sge i32 %27, 4
  br i1 %28, label %29, label %37

29:                                               ; preds = %26
  %30 = load ptr, ptr %3, align 8
  %31 = load ptr, ptr %3, align 8
  %32 = getelementptr inbounds nuw %struct.data_s, ptr %31, i32 0, i32 2
  %33 = load ptr, ptr %32, align 8
  %34 = getelementptr inbounds nuw %struct.data_list_s, ptr %33, i32 0, i32 1
  %35 = load i64, ptr %34, align 8
  %36 = load ptr, ptr %4, align 8
  call void (i32, ptr, ...) @log_var(i32 noundef 4, ptr noundef @.str.12, ptr noundef @__func__.data_list_prepend, ptr noundef %30, i64 noundef %35, ptr noundef %36)
  br label %37

37:                                               ; preds = %29, %26
  br label %38

38:                                               ; preds = %37
  br label %39

39:                                               ; preds = %38
  br label %40

40:                                               ; preds = %39, %21
  br label %41

41:                                               ; preds = %40
  br label %42

42:                                               ; preds = %41
  %43 = load ptr, ptr %4, align 8
  store ptr %43, ptr %2, align 8
  store i32 1, ptr %5, align 4
  br label %44

44:                                               ; preds = %42, %14
  call void @llvm.lifetime.end.p0(i64 8, ptr %4) #10
  %45 = load ptr, ptr %2, align 8
  ret ptr %45
}