; Function Attrs: nounwind uwtable
define dso_local noundef ptr @data_list_prepend(ptr noundef %0) local_unnamed_addr #0 {
  %.not = icmp eq ptr %0, null
  br i1 %.not, label %55, label %2

2:                                                ; preds = %1
  %3 = getelementptr inbounds nuw i8, ptr %0, i64 4
  %4 = load i32, ptr %3, align 4
  %.not11 = icmp eq i32 %4, 65282
  br i1 %.not11, label %5, label %55

5:                                                ; preds = %2
  %6 = tail call ptr @slurm_xcalloc(i64 noundef 1, i64 noundef 16, i1 noundef zeroext true, i1 noundef zeroext false, ptr noundef nonnull @.str, i32 noundef 389, ptr noundef nonnull @__func__.data_new) #16
  store i32 429004959, ptr %6, align 8
  %7 = getelementptr inbounds nuw i8, ptr %6, i64 4
  store i32 65281, ptr %7, align 4
  %8 = load i64, ptr getelementptr inbounds nuw (i8, ptr @slurm_conf, i64 320), align 8
  %9 = and i64 %8, 256
  %.not.i = icmp eq i64 %9, 0
  br i1 %.not.i, label %data_new.exit, label %10

10:                                               ; preds = %5
  %11 = tail call i32 @get_log_level() #16
  %12 = icmp sgt i32 %11, 3
  br i1 %12, label %13, label %data_new.exit

13:                                               ; preds = %10
  tail call void (i32, ptr, ...) @log_var(i32 noundef 4, ptr noundef nonnull @.str.1, ptr noundef nonnull @__func__.data_new, ptr noundef nonnull %6) #16
  br label %data_new.exit

data_new.exit:                                    ; preds = %5, %10, %13
  %14 = getelementptr inbounds nuw i8, ptr %0, i64 8
  %15 = load ptr, ptr %14, align 8
  %16 = tail call ptr @slurm_xcalloc(i64 noundef 1, i64 noundef 32, i1 noundef zeroext true, i1 noundef zeroext false, ptr noundef nonnull @.str, i32 noundef 317, ptr noundef nonnull @__func__._new_data_list_node) #16
  store i32 421656735, ptr %16, align 8
  %17 = getelementptr inbounds nuw i8, ptr %16, i64 16
  store ptr %6, ptr %17, align 8
  %18 = load i64, ptr getelementptr inbounds nuw (i8, ptr @slurm_conf, i64 320), align 8
  %19 = and i64 %18, 256
  %.not13.i.i = icmp eq i64 %19, 0
  br i1 %.not13.i.i, label %_new_data_list_node.exit.i, label %20

20:                                               ; preds = %data_new.exit
  %21 = tail call i32 @get_log_level() #16
  %22 = icmp sgt i32 %21, 3
  br i1 %22, label %23, label %_new_data_list_node.exit.i

23:                                               ; preds = %20
  %24 = ptrtoint ptr %16 to i64
  %25 = load ptr, ptr %17, align 8
  tail call void (i32, ptr, ...) @log_var(i32 noundef 4, ptr noundef nonnull @.str.77, ptr noundef nonnull @__func__._new_data_list_node, i64 noundef %24, ptr noundef %25) #16
  br label %_new_data_list_node.exit.i

_new_data_list_node.exit.i:                       ; preds = %23, %20, %data_new.exit
  %26 = getelementptr inbounds nuw i8, ptr %15, i64 16
  %27 = load ptr, ptr %26, align 8
  %.not.i13 = icmp eq ptr %27, null
  br i1 %.not.i13, label %30, label %28

28:                                               ; preds = %_new_data_list_node.exit.i
  %29 = getelementptr inbounds nuw i8, ptr %16, i64 8
  store ptr %27, ptr %29, align 8
  br label %32

30:                                               ; preds = %_new_data_list_node.exit.i
  %31 = getelementptr inbounds nuw i8, ptr %15, i64 24
  store ptr %16, ptr %31, align 8
  br label %32

32:                                               ; preds = %30, %28
  store ptr %16, ptr %26, align 8
  %33 = getelementptr inbounds nuw i8, ptr %15, i64 8
  %34 = load i64, ptr %33, align 8
  %35 = add i64 %34, 1
  store i64 %35, ptr %33, align 8
  %36 = load i64, ptr getelementptr inbounds nuw (i8, ptr @slurm_conf, i64 320), align 8
  %37 = and i64 %36, 256
  %.not20.i = icmp eq i64 %37, 0
  br i1 %.not20.i, label %_data_list_prepend.exit, label %38

38:                                               ; preds = %32
  %39 = tail call i32 @get_log_level() #16
  %40 = icmp sgt i32 %39, 3
  br i1 %40, label %41, label %_data_list_prepend.exit

41:                                               ; preds = %38
  %42 = ptrtoint ptr %16 to i64
  %43 = getelementptr inbounds nuw i8, ptr %16, i64 24
  %44 = load ptr, ptr %43, align 8
  %45 = load ptr, ptr %17, align 8
  tail call void (i32, ptr, ...) @log_var(i32 noundef 4, ptr noundef nonnull @.str.78, ptr noundef nonnull @__func__._data_list_prepend, ptr noundef nonnull %6, ptr noundef null, i64 noundef %42, ptr noundef %44, ptr noundef %45) #16
  br label %_data_list_prepend.exit

_data_list_prepend.exit:                          ; preds = %32, %38, %41
  %46 = load i64, ptr getelementptr inbounds nuw (i8, ptr @slurm_conf, i64 320), align 8
  %47 = and i64 %46, 256
  %.not12 = icmp eq i64 %47, 0
  br i1 %.not12, label %55, label %48

48:                                               ; preds = %_data_list_prepend.exit
  %49 = tail call i32 @get_log_level() #16
  %50 = icmp sgt i32 %49, 3
  br i1 %50, label %51, label %55

51:                                               ; preds = %48
  %52 = load ptr, ptr %14, align 8
  %53 = getelementptr inbounds nuw i8, ptr %52, i64 8
  %54 = load i64, ptr %53, align 8
  tail call void (i32, ptr, ...) @log_var(i32 noundef 4, ptr noundef nonnull @.str.12, ptr noundef nonnull @__func__.data_list_prepend, ptr noundef nonnull %0, i64 noundef %54, ptr noundef nonnull %6) #16
  br label %55

55:                                               ; preds = %_data_list_prepend.exit, %51, %48, %1, %2
  %.0 = phi ptr [ null, %2 ], [ null, %1 ], [ %6, %48 ], [ %6, %51 ], [ %6, %_data_list_prepend.exit ]
  ret ptr %.0
}